target datalayout = "e-m:e-p270:32:32-p271:32:32-p272:64:64-i64:64-i128:128-f80:128-n8:16:32:64-S128"
target triple = "x86_64-pc-linux-gnu"

@.str.14 = private unnamed_addr constant [28 x i8] c"../openssl/test/http_test.c\00", align 1
@.str.46 = private unnamed_addr constant [5 x i8] c"host\00", align 1
@.str.58 = private unnamed_addr constant [5 x i8] c"path\00", align 1
@.str.77 = private unnamed_addr constant [75 x i8] c"OSSL_HTTP_parse_url(url, NULL, NULL, &host, NULL, NULL, &path, NULL, NULL)\00", align 1
@.str.78 = private unnamed_addr constant [7 x i8] c"\22host\22\00", align 1
@.str.79 = private unnamed_addr constant [12 x i8] c"exp_path_qu\00", align 1

; Function Attrs: nounwind uwtable
define internal i32 @test_http_url_path_query_ok(ptr noundef %0, ptr noundef %1) #0 {
  %3 = alloca ptr, align 8
  %4 = alloca ptr, align 8
  %5 = alloca ptr, align 8
  %6 = alloca ptr, align 8
  %7 = alloca i32, align 4
  store ptr %0, ptr %3, align 8, !tbaa !11
  store ptr %1, ptr %4, align 8, !tbaa !11
  call void @llvm.lifetime.start.p0(i64 8, ptr %5) #7
  call void @llvm.lifetime.start.p0(i64 8, ptr %6) #7
  call void @llvm.lifetime.start.p0(i64 4, ptr %7) #7
  %8 = load ptr, ptr %3, align 8, !tbaa !11
  %9 = call i32 @OSSL_HTTP_parse_url(ptr noundef %8, ptr noundef null, ptr noundef null, ptr noundef %5, ptr noundef null, ptr noundef null, ptr noundef %6, ptr noundef null, ptr noundef null)
  %10 = icmp ne i32 %9, 0
  %11 = zext i1 %10 to i32
  %12 = call i32 @test_true(ptr noundef @.str.14, i32 noundef 322, ptr noundef @.str.77, i32 noundef %11)
  %13 = icmp ne i32 %12, 0
  br i1 %13, label %14, label %23

14:                                               ; preds = %2
  %15 = load ptr, ptr %5, align 8, !tbaa !11
  %16 = call i32 @test_str_eq(ptr noundef @.str.14, i32 noundef 323, ptr noundef @.str.46, ptr noundef @.str.78, ptr noundef %15, ptr noundef @.str.46)
  %17 = icmp ne i32 %16, 0
  br i1 %17, label %18, label %23

18:                                               ; preds = %14
  %19 = load ptr, ptr %6, align 8, !tbaa !11
  %20 = load ptr, ptr %4, align 8, !tbaa !11
  %21 = call i32 @test_str_eq(ptr noundef @.str.14, i32 noundef 324, ptr noundef @.str.58, ptr noundef @.str.79, ptr noundef %19, ptr noundef %20)
  %22 = icmp ne i32 %21, 0
  br label %23

23:                                               ; preds = %18, %14, %2
  %24 = phi i1 [ false, %14 ], [ false, %2 ], [ %22, %18 ]
  %25 = zext i1 %24 to i32
  store i32 %25, ptr %7, align 4, !tbaa !13
  %26 = load ptr, ptr %5, align 8, !tbaa !11
  call void @CRYPTO_free(ptr noundef %26, ptr noundef @.str.14, i32 noundef 325)
  %27 = load ptr, ptr %6, align 8, !tbaa !11
  call void @CRYPTO_free(ptr noundef %27, ptr noundef @.str.14, i32 noundef 326)
  %28 = load i32, ptr %7, align 4, !tbaa !13
  call void @llvm.lifetime.end.p0(i64 4, ptr %7) #7
  call void @llvm.lifetime.end.p0(i64 8, ptr %6) #7
  call void @llvm.lifetime.end.p0(i64 8, ptr %5) #7
  ret i32 %28
}