; Function Attrs: nounwind uwtable
define internal fastcc range(i32 0, 2) i32 @test_http_url_path_query_ok(ptr noundef %0, ptr noundef %1) unnamed_addr #0 {
  %3 = alloca ptr, align 8
  %4 = alloca ptr, align 8
  call void @llvm.lifetime.start.p0(i64 8, ptr nonnull %3) #9
  call void @llvm.lifetime.start.p0(i64 8, ptr nonnull %4) #9
  %5 = call i32 @OSSL_HTTP_parse_url(ptr noundef %0, ptr noundef null, ptr noundef null, ptr noundef nonnull %3, ptr noundef null, ptr noundef null, ptr noundef nonnull %4, ptr noundef null, ptr noundef null) #9
  %6 = icmp ne i32 %5, 0
  %7 = zext i1 %6 to i32
  %8 = call i32 @test_true(ptr noundef nonnull @.str.14, i32 noundef 322, ptr noundef nonnull @.str.77, i32 noundef %7) #9
  %.not = icmp eq i32 %8, 0
  br i1 %.not, label %17, label %9

9:                                                ; preds = %2
  %10 = load ptr, ptr %3, align 8, !tbaa !11
  %11 = call i32 @test_str_eq(ptr noundef nonnull @.str.14, i32 noundef 323, ptr noundef nonnull @.str.46, ptr noundef nonnull @.str.78, ptr noundef %10, ptr noundef nonnull @.str.46) #9
  %.not2 = icmp eq i32 %11, 0
  br i1 %.not2, label %17, label %12

12:                                               ; preds = %9
  %13 = load ptr, ptr %4, align 8, !tbaa !11
  %14 = call i32 @test_str_eq(ptr noundef nonnull @.str.14, i32 noundef 324, ptr noundef nonnull @.str.58, ptr noundef nonnull @.str.79, ptr noundef %13, ptr noundef %1) #9
  %15 = icmp ne i32 %14, 0
  %16 = zext i1 %15 to i32
  br label %17

17:                                               ; preds = %12, %9, %2
  %18 = phi i32 [ 0, %9 ], [ 0, %2 ], [ %16, %12 ]
  %19 = load ptr, ptr %3, align 8, !tbaa !11
  call void @CRYPTO_free(ptr noundef %19, ptr noundef nonnull @.str.14, i32 noundef 325) #9
  %20 = load ptr, ptr %4, align 8, !tbaa !11
  call void @CRYPTO_free(ptr noundef %20, ptr noundef nonnull @.str.14, i32 noundef 326) #9
  call void @llvm.lifetime.end.p0(i64 8, ptr nonnull %4) #9
  call void @llvm.lifetime.end.p0(i64 8, ptr nonnull %3) #9
  ret i32 %18
}